; Function Attrs: inlinehint nounwind uwtable
define internal void @Abc_Print(i32 %0, ptr readnone captures(none) %1, ...) unnamed_addr #8 {
  %3 = alloca [1 x %struct.__va_list_tag], align 16
  call void @llvm.lifetime.start.p0(i64 24, ptr nonnull %3) #19
  %4 = load i32, ptr @enable_dbg_outs, align 4, !tbaa !15
  %.not = icmp eq i32 %4, 0
  br i1 %.not, label %24, label %5

5:                                                ; preds = %2
  %6 = tail call i32 (...) @Abc_FrameIsBridgeMode() #19
  %.not8 = icmp eq i32 %6, 0
  br i1 %.not8, label %7, label %9

7:                                                ; preds = %5
  %8 = tail call i32 (ptr, ...) @printf(ptr noundef nonnull dereferenceable(1) @.str.11)
  br label %12

9:                                                ; preds = %5
  %10 = load ptr, ptr @stdout, align 8, !tbaa !35
  %11 = tail call i32 @Gia_ManToBridgeText(ptr noundef %10, i32 noundef 7, ptr noundef nonnull @.str.11) #19
  br label %12

12:                                               ; preds = %9, %7
  call void @llvm.va_start.p0(ptr nonnull %3)
  %13 = call i32 (...) @Abc_FrameIsBridgeMode() #19
  %.not9 = icmp eq i32 %13, 0
  br i1 %.not9, label %20, label %14

14:                                               ; preds = %12
  %15 = call ptr @vnsprintf(ptr noundef nonnull @.str.10, ptr noundef nonnull %3) #19
  %16 = load ptr, ptr @stdout, align 8, !tbaa !35
  %17 = call i64 @strlen(ptr noundef nonnull dereferenceable(1) %15) #20
  %18 = trunc i64 %17 to i32
  %19 = call i32 @Gia_ManToBridgeText(ptr noundef %16, i32 noundef %18, ptr noundef nonnull %15) #19
  call void @free(ptr noundef %15) #19
  br label %23

20:                                               ; preds = %12
  %21 = load ptr, ptr @stdout, align 8, !tbaa !35, !noalias !37
  %22 = call i32 @vfprintf(ptr noundef %21, ptr noundef nonnull @.str.10, ptr noundef nonnull %3) #19
  br label %23

23:                                               ; preds = %20, %14
  call void @llvm.va_end.p0(ptr nonnull %3)
  br label %24

24:                                               ; preds = %2, %23
  call void @llvm.lifetime.end.p0(i64 24, ptr nonnull %3) #19
  ret void
}